target datalayout = "e-m:e-p270:32:32-p271:32:32-p272:64:64-i64:64-i128:128-f80:128-n8:16:32:64-S128"
target triple = "x86_64-pc-linux-gnu"

%struct.conn = type { i32, ptr, ptr }

@.str.62 = private unnamed_addr constant [10 x i8] c"testapp.c\00", align 1
@.str.209 = private unnamed_addr constant [14 x i8] c"SKIP_TEST_101\00", align 1
@.str.210 = private unnamed_addr constant [36 x i8] c"stats\0D\0Astats\0D\0Astats\0D\0Astats\0D\0Astats\0D\0A\00", align 1
@port = internal global i16 0, align 2
@server_pid = internal global i32 0, align 4
@.str.211 = private unnamed_addr constant [10 x i8] c"127.0.0.1\00", align 1
@enable_ssl = internal global i8 0, align 1
@.str.212 = private unnamed_addr constant [10 x i8] c"conns[ii]\00", align 1
@__PRETTY_FUNCTION__.test_issue_101 = private unnamed_addr constant [38 x i8] c"enum test_return test_issue_101(void)\00", align 1
@.str.213 = private unnamed_addr constant [20 x i8] c"conns[ii]->sock > 0\00", align 1
@.str.214 = private unnamed_addr constant [11 x i8] c"c == child\00", align 1
@.str.215 = private unnamed_addr constant [10 x i8] c"stat == 0\00", align 1
@con = internal global ptr null, align 8
@.str.216 = private unnamed_addr constant [4 x i8] c"con\00", align 1
@.str.217 = private unnamed_addr constant [31 x i8] c"kill(server_pid, SIGTERM) == 0\00", align 1

; Function Attrs: nounwind uwtable
define internal i32 @test_issue_101() #0 {
  %1 = alloca i32, align 4
  %2 = alloca i32, align 4
  %3 = alloca [2 x ptr], align 16
  %4 = alloca i32, align 4
  %5 = alloca i32, align 4
  %6 = alloca i32, align 4
  %7 = alloca ptr, align 8
  %8 = alloca i64, align 8
  %9 = alloca i8, align 1
  %10 = alloca i64, align 8
  %11 = alloca i32, align 4
  %12 = alloca i32, align 4
  %13 = alloca ptr, align 8
  call void @llvm.lifetime.start.p0(i64 4, ptr %2) #12
  store i32 1, ptr %2, align 4, !tbaa !10
  call void @llvm.lifetime.start.p0(i64 16, ptr %3) #12
  call void @llvm.lifetime.start.p0(i64 4, ptr %4) #12
  store i32 0, ptr %4, align 4, !tbaa !10
  call void @llvm.lifetime.start.p0(i64 4, ptr %5) #12
  store i32 0, ptr %5, align 4, !tbaa !10
  %14 = call ptr @getenv(ptr noundef @.str.209) #12
  %15 = icmp ne ptr %14, null
  br i1 %15, label %16, label %17

16:                                               ; preds = %0
  store i32 0, ptr %1, align 4
  store i32 1, ptr %6, align 4
  br label %187

17:                                               ; preds = %0
  call void @llvm.lifetime.start.p0(i64 8, ptr %7) #12
  store ptr @.str.210, ptr %7, align 8, !tbaa !8
  call void @llvm.lifetime.start.p0(i64 8, ptr %8) #12
  %18 = load ptr, ptr %7, align 8, !tbaa !8
  %19 = call i64 @strlen(ptr noundef %18) #15
  store i64 %19, ptr %8, align 8, !tbaa !36
  %20 = call i32 @start_server(ptr noundef @port, i1 noundef zeroext false, i32 noundef 1000)
  store i32 %20, ptr @server_pid, align 4, !tbaa !10
  store i32 0, ptr %4, align 4, !tbaa !10
  br label %21

21:                                               ; preds = %53, %17
  %22 = load i32, ptr %4, align 4, !tbaa !10
  %23 = icmp slt i32 %22, 2
  br i1 %23, label %24, label %56

24:                                               ; preds = %21
  %25 = load i32, ptr %4, align 4, !tbaa !10
  %26 = sext i32 %25 to i64
  %27 = getelementptr inbounds [2 x ptr], ptr %3, i64 0, i64 %26
  store ptr null, ptr %27, align 8, !tbaa !39
  %28 = load i16, ptr @port, align 2, !tbaa !41
  %29 = load i8, ptr @enable_ssl, align 1, !tbaa !31, !range !34, !noundef !35
  %30 = trunc i8 %29 to i1
  %31 = call ptr @connect_server(ptr noundef @.str.211, i16 noundef zeroext %28, i1 noundef zeroext true, i1 noundef zeroext %30)
  %32 = load i32, ptr %4, align 4, !tbaa !10
  %33 = sext i32 %32 to i64
  %34 = getelementptr inbounds [2 x ptr], ptr %3, i64 0, i64 %33
  store ptr %31, ptr %34, align 8, !tbaa !39
  %35 = load i32, ptr %4, align 4, !tbaa !10
  %36 = sext i32 %35 to i64
  %37 = getelementptr inbounds [2 x ptr], ptr %3, i64 0, i64 %36
  %38 = load ptr, ptr %37, align 8, !tbaa !39
  %39 = icmp ne ptr %38, null
  br i1 %39, label %40, label %41

40:                                               ; preds = %24
  br label %42

41:                                               ; preds = %24
  call void @__assert_fail(ptr noundef @.str.212, ptr noundef @.str.62, i32 noundef 2188, ptr noundef @__PRETTY_FUNCTION__.test_issue_101) #13
  unreachable

42:                                               ; preds = %40
  %43 = load i32, ptr %4, align 4, !tbaa !10
  %44 = sext i32 %43 to i64
  %45 = getelementptr inbounds [2 x ptr], ptr %3, i64 0, i64 %44
  %46 = load ptr, ptr %45, align 8, !tbaa !39
  %47 = getelementptr inbounds nuw %struct.conn, ptr %46, i32 0, i32 0
  %48 = load i32, ptr %47, align 8, !tbaa !43
  %49 = icmp sgt i32 %48, 0
  br i1 %49, label %50, label %51

50:                                               ; preds = %42
  br label %52

51:                                               ; preds = %42
  call void @__assert_fail(ptr noundef @.str.213, ptr noundef @.str.62, i32 noundef 2189, ptr noundef @__PRETTY_FUNCTION__.test_issue_101) #13
  unreachable

52:                                               ; preds = %50
  br label %53

53:                                               ; preds = %52
  %54 = load i32, ptr %4, align 4, !tbaa !10
  %55 = add nsw i32 %54, 1
  store i32 %55, ptr %4, align 4, !tbaa !10
  br label %21, !llvm.loop !45

56:                                               ; preds = %21
  store i32 0, ptr %4, align 4, !tbaa !10
  br label %57

57:                                               ; preds = %94, %56
  %58 = load i32, ptr %4, align 4, !tbaa !10
  %59 = icmp slt i32 %58, 2
  br i1 %59, label %60, label %97

60:                                               ; preds = %57
  call void @llvm.lifetime.start.p0(i64 1, ptr %9) #12
  store i8 1, ptr %9, align 1, !tbaa !31
  br label %61

61:                                               ; preds = %87, %60
  call void @llvm.lifetime.start.p0(i64 8, ptr %10) #12
  %62 = load i32, ptr %4, align 4, !tbaa !10
  %63 = sext i32 %62 to i64
  %64 = getelementptr inbounds [2 x ptr], ptr %3, i64 0, i64 %63
  %65 = load ptr, ptr %64, align 8, !tbaa !39
  %66 = getelementptr inbounds nuw %struct.conn, ptr %65, i32 0, i32 2
  %67 = load ptr, ptr %66, align 8, !tbaa !46
  %68 = load i32, ptr %4, align 4, !tbaa !10
  %69 = sext i32 %68 to i64
  %70 = getelementptr inbounds [2 x ptr], ptr %3, i64 0, i64 %69
  %71 = load ptr, ptr %70, align 8, !tbaa !39
  %72 = load ptr, ptr %7, align 8, !tbaa !8
  %73 = load i64, ptr %8, align 8, !tbaa !36
  %74 = call i64 %67(ptr noundef %71, ptr noundef %72, i64 noundef %73)
  store i64 %74, ptr %10, align 8, !tbaa !36
  %75 = load i64, ptr %10, align 8, !tbaa !36
  %76 = icmp eq i64 %75, -1
  br i1 %76, label %77, label %83

77:                                               ; preds = %61
  %78 = call ptr @__errno_location() #16
  %79 = load i32, ptr %78, align 4, !tbaa !10
  switch i32 %79, label %81 [
    i32 4, label %82
    i32 12, label %80
    i32 11, label %80
  ]

80:                                               ; preds = %77, %77
  store i8 0, ptr %9, align 1, !tbaa !31
  br label %82

81:                                               ; preds = %77
  store i32 2, ptr %2, align 4, !tbaa !10
  store i32 11, ptr %6, align 4
  br label %84

82:                                               ; preds = %80, %77
  br label %83

83:                                               ; preds = %82, %61
  store i32 0, ptr %6, align 4
  br label %84

84:                                               ; preds = %81, %83
  call void @llvm.lifetime.end.p0(i64 8, ptr %10) #12
  %85 = load i32, ptr %6, align 4
  switch i32 %85, label %91 [
    i32 0, label %86
  ]

86:                                               ; preds = %84
  br label %87

87:                                               ; preds = %86
  %88 = load i8, ptr %9, align 1, !tbaa !31, !range !34, !noundef !35
  %89 = trunc i8 %88 to i1
  br i1 %89, label %61, label %90, !llvm.loop !47

90:                                               ; preds = %87
  store i32 0, ptr %6, align 4
  br label %91

91:                                               ; preds = %90, %84
  call void @llvm.lifetime.end.p0(i64 1, ptr %9) #12
  %92 = load i32, ptr %6, align 4
  switch i32 %92, label %186 [
    i32 0, label %93
    i32 11, label %142
  ]

93:                                               ; preds = %91
  br label %94

94:                                               ; preds = %93
  %95 = load i32, ptr %4, align 4, !tbaa !10
  %96 = add nsw i32 %95, 1
  store i32 %96, ptr %4, align 4, !tbaa !10
  br label %57, !llvm.loop !48

97:                                               ; preds = %57
  %98 = call i32 @fork() #12
  store i32 %98, ptr %5, align 4, !tbaa !10
  %99 = load i32, ptr %5, align 4, !tbaa !10
  %100 = icmp eq i32 %99, -1
  br i1 %100, label %101, label %102

101:                                              ; preds = %97
  call void @abort() #13
  unreachable

102:                                              ; preds = %97
  %103 = load i32, ptr %5, align 4, !tbaa !10
  %104 = icmp sgt i32 %103, 0
  br i1 %104, label %105, label %129

105:                                              ; preds = %102
  call void @llvm.lifetime.start.p0(i64 4, ptr %11) #12
  call void @llvm.lifetime.start.p0(i64 4, ptr %12) #12
  br label %106

106:                                              ; preds = %116, %105
  %107 = load i32, ptr %5, align 4, !tbaa !10
  %108 = call i32 @waitpid(i32 noundef %107, ptr noundef %11, i32 noundef 0)
  store i32 %108, ptr %12, align 4, !tbaa !10
  %109 = icmp eq i32 %108, -1
  br i1 %109, label %110, label %114

110:                                              ; preds = %106
  %111 = call ptr @__errno_location() #16
  %112 = load i32, ptr %111, align 4, !tbaa !10
  %113 = icmp eq i32 %112, 4
  br label %114

114:                                              ; preds = %110, %106
  %115 = phi i1 [ false, %106 ], [ %113, %110 ]
  br i1 %115, label %116, label %117

116:                                              ; preds = %114
  br label %106, !llvm.loop !49

117:                                              ; preds = %114
  %118 = load i32, ptr %12, align 4, !tbaa !10
  %119 = load i32, ptr %5, align 4, !tbaa !10
  %120 = icmp eq i32 %118, %119
  br i1 %120, label %121, label %122

121:                                              ; preds = %117
  br label %123

122:                                              ; preds = %117
  call void @__assert_fail(ptr noundef @.str.214, ptr noundef @.str.62, i32 noundef 2220, ptr noundef @__PRETTY_FUNCTION__.test_issue_101) #13
  unreachable

123:                                              ; preds = %121
  %124 = load i32, ptr %11, align 4, !tbaa !10
  %125 = icmp eq i32 %124, 0
  br i1 %125, label %126, label %127

126:                                              ; preds = %123
  br label %128

127:                                              ; preds = %123
  call void @__assert_fail(ptr noundef @.str.215, ptr noundef @.str.62, i32 noundef 2221, ptr noundef @__PRETTY_FUNCTION__.test_issue_101) #13
  unreachable

128:                                              ; preds = %126
  call void @llvm.lifetime.end.p0(i64 4, ptr %12) #12
  call void @llvm.lifetime.end.p0(i64 4, ptr %11) #12
  br label %140

129:                                              ; preds = %102
  %130 = load i16, ptr @port, align 2, !tbaa !41
  %131 = load i8, ptr @enable_ssl, align 1, !tbaa !31, !range !34, !noundef !35
  %132 = trunc i8 %131 to i1
  %133 = call ptr @connect_server(ptr noundef @.str.211, i16 noundef zeroext %130, i1 noundef zeroext false, i1 noundef zeroext %132)
  store ptr %133, ptr @con, align 8, !tbaa !39
  %134 = load ptr, ptr @con, align 8, !tbaa !39
  %135 = icmp ne ptr %134, null
  br i1 %135, label %136, label %137

136:                                              ; preds = %129
  br label %138

137:                                              ; preds = %129
  call void @__assert_fail(ptr noundef @.str.216, ptr noundef @.str.62, i32 noundef 2224, ptr noundef @__PRETTY_FUNCTION__.test_issue_101) #13
  unreachable

138:                                              ; preds = %136
  %139 = call i32 @test_binary_noop()
  store i32 %139, ptr %2, align 4, !tbaa !10
  call void @close_conn()
  call void @exit(i32 noundef 0) #13
  unreachable

140:                                              ; preds = %128
  br label %141

141:                                              ; preds = %140
  br label %142

142:                                              ; preds = %141, %91
  store i32 0, ptr %4, align 4, !tbaa !10
  br label %143

143:                                              ; preds = %175, %142
  %144 = load i32, ptr %4, align 4, !tbaa !10
  %145 = icmp slt i32 %144, 2
  br i1 %145, label %146, label %178

146:                                              ; preds = %143
  call void @llvm.lifetime.start.p0(i64 8, ptr %13) #12
  %147 = load i32, ptr %4, align 4, !tbaa !10
  %148 = sext i32 %147 to i64
  %149 = getelementptr inbounds [2 x ptr], ptr %3, i64 0, i64 %148
  %150 = load ptr, ptr %149, align 8, !tbaa !39
  store ptr %150, ptr %13, align 8, !tbaa !39
  %151 = load ptr, ptr %13, align 8, !tbaa !39
  %152 = icmp eq ptr %151, null
  br i1 %152, label %153, label %154

153:                                              ; preds = %146
  store i32 16, ptr %6, align 4
  br label %172

154:                                              ; preds = %146
  %155 = load ptr, ptr %13, align 8, !tbaa !39
  %156 = getelementptr inbounds nuw %struct.conn, ptr %155, i32 0, i32 0
  %157 = load i32, ptr %156, align 8, !tbaa !43
  %158 = icmp sgt i32 %157, 0
  br i1 %158, label %159, label %164

159:                                              ; preds = %154
  %160 = load ptr, ptr %13, align 8, !tbaa !39
  %161 = getelementptr inbounds nuw %struct.conn, ptr %160, i32 0, i32 0
  %162 = load i32, ptr %161, align 8, !tbaa !43
  %163 = call i32 @close(i32 noundef %162)
  br label %164

164:                                              ; preds = %159, %154
  %165 = load i32, ptr %4, align 4, !tbaa !10
  %166 = sext i32 %165 to i64
  %167 = getelementptr inbounds [2 x ptr], ptr %3, i64 0, i64 %166
  %168 = load ptr, ptr %167, align 8, !tbaa !39
  call void @free(ptr noundef %168) #12
  %169 = load i32, ptr %4, align 4, !tbaa !10
  %170 = sext i32 %169 to i64
  %171 = getelementptr inbounds [2 x ptr], ptr %3, i64 0, i64 %170
  store ptr null, ptr %171, align 8, !tbaa !39
  store i32 0, ptr %6, align 4
  br label %172

172:                                              ; preds = %164, %153
  call void @llvm.lifetime.end.p0(i64 8, ptr %13) #12
  %173 = load i32, ptr %6, align 4
  switch i32 %173, label %189 [
    i32 0, label %174
    i32 16, label %175
  ]

174:                                              ; preds = %172
  br label %175

175:                                              ; preds = %174, %172
  %176 = load i32, ptr %4, align 4, !tbaa !10
  %177 = add nsw i32 %176, 1
  store i32 %177, ptr %4, align 4, !tbaa !10
  br label %143, !llvm.loop !50

178:                                              ; preds = %143
  %179 = load i32, ptr @server_pid, align 4, !tbaa !10
  %180 = call i32 @kill(i32 noundef %179, i32 noundef 15) #12
  %181 = icmp eq i32 %180, 0
  br i1 %181, label %182, label %183

182:                                              ; preds = %178
  br label %184

183:                                              ; preds = %178
  call void @__assert_fail(ptr noundef @.str.217, ptr noundef @.str.62, i32 noundef 2248, ptr noundef @__PRETTY_FUNCTION__.test_issue_101) #13
  unreachable

184:                                              ; preds = %182
  %185 = load i32, ptr %2, align 4, !tbaa !10
  store i32 %185, ptr %1, align 4
  store i32 1, ptr %6, align 4
  br label %186

186:                                              ; preds = %184, %91
  call void @llvm.lifetime.end.p0(i64 8, ptr %8) #12
  call void @llvm.lifetime.end.p0(i64 8, ptr %7) #12
  br label %187

187:                                              ; preds = %186, %16
  call void @llvm.lifetime.end.p0(i64 4, ptr %5) #12
  call void @llvm.lifetime.end.p0(i64 4, ptr %4) #12
  call void @llvm.lifetime.end.p0(i64 16, ptr %3) #12
  call void @llvm.lifetime.end.p0(i64 4, ptr %2) #12
  %188 = load i32, ptr %1, align 4
  ret i32 %188

189:                                              ; preds = %172
  unreachable
}