; Function Attrs: nounwind uwtable
define internal range(i32 0, 3) i32 @test_issue_101() #0 {
  %.sroa.0 = alloca ptr, align 16
  %.sroa.5 = alloca ptr, align 8
  %1 = alloca i32, align 4
  call void @llvm.lifetime.start.p0(i64 8, ptr nonnull %.sroa.0)
  call void @llvm.lifetime.start.p0(i64 8, ptr nonnull %.sroa.5)
  %2 = tail call ptr @getenv(ptr noundef nonnull @.str.209) #21
  %.not = icmp eq ptr %2, null
  br i1 %.not, label %3, label %68

3:                                                ; preds = %0
  %4 = tail call fastcc i32 @start_server(ptr noundef nonnull @port, i1 noundef zeroext false, i32 noundef 1000)
  store i32 %4, ptr @server_pid, align 4, !tbaa !9
  br label %6

5:                                                ; preds = %11
  br i1 %7, label %6, label %.preheader, !llvm.loop !32

6:                                                ; preds = %3, %5
  %7 = phi i1 [ true, %3 ], [ false, %5 ]
  %indvars.iv.sroa.phi = phi ptr [ %.sroa.0, %3 ], [ %.sroa.5, %5 ]
  %8 = load i16, ptr @port, align 2, !tbaa !33
  %9 = tail call fastcc ptr @connect_server(i16 noundef zeroext %8, i1 noundef zeroext true)
  store ptr %9, ptr %indvars.iv.sroa.phi, align 8, !tbaa !35
  %.not46 = icmp eq ptr %9, null
  br i1 %.not46, label %10, label %11

10:                                               ; preds = %6
  tail call void @__assert_fail(ptr noundef nonnull @.str.212, ptr noundef nonnull @.str.62, i32 noundef 2188, ptr noundef nonnull @__PRETTY_FUNCTION__.test_issue_101) #22
  unreachable

11:                                               ; preds = %6
  %12 = load i32, ptr %9, align 8, !tbaa !37
  %13 = icmp sgt i32 %12, 0
  br i1 %13, label %5, label %14

14:                                               ; preds = %11
  tail call void @__assert_fail(ptr noundef nonnull @.str.213, ptr noundef nonnull @.str.62, i32 noundef 2189, ptr noundef nonnull @__PRETTY_FUNCTION__.test_issue_101) #22
  unreachable

.preheader:                                       ; preds = %5, %25
  %15 = phi i1 [ false, %25 ], [ true, %5 ]
  %indvars.iv65.sroa.phi = phi ptr [ %.sroa.5, %25 ], [ %.sroa.0, %5 ]
  %16 = load ptr, ptr %indvars.iv65.sroa.phi, align 8, !tbaa !35
  %17 = getelementptr inbounds nuw i8, ptr %16, i64 16
  br label %18

18:                                               ; preds = %.backedge, %.preheader
  %19 = load ptr, ptr %17, align 8, !tbaa !39
  %20 = tail call i64 %19(ptr noundef %16, ptr noundef nonnull @.str.210, i64 noundef 35) #21
  %21 = icmp eq i64 %20, -1
  br i1 %21, label %22, label %.backedge

22:                                               ; preds = %18
  %23 = tail call ptr @__errno_location() #25
  %24 = load i32, ptr %23, align 4, !tbaa !9
  switch i32 %24, label %.loopexit [
    i32 4, label %.backedge
    i32 12, label %25
    i32 11, label %25
  ]

.backedge:                                        ; preds = %22, %18
  br label %18

25:                                               ; preds = %22, %22
  br i1 %15, label %.preheader, label %26, !llvm.loop !40

26:                                               ; preds = %25
  %27 = tail call i32 @fork() #21
  %28 = icmp eq i32 %27, -1
  br i1 %28, label %29, label %30

29:                                               ; preds = %26
  tail call void @abort() #22
  unreachable

30:                                               ; preds = %26
  %31 = icmp sgt i32 %27, 0
  br i1 %31, label %32, label %46

32:                                               ; preds = %30
  call void @llvm.lifetime.start.p0(i64 4, ptr nonnull %1) #21
  br label %33

33:                                               ; preds = %36, %32
  %34 = call i32 @waitpid(i32 noundef %27, ptr noundef nonnull %1, i32 noundef 0) #21
  %35 = icmp eq i32 %34, -1
  br i1 %35, label %36, label %.critedge

36:                                               ; preds = %33
  %37 = load i32, ptr %23, align 4, !tbaa !9
  %38 = icmp eq i32 %37, 4
  br i1 %38, label %33, label %.critedge, !llvm.loop !41

.critedge:                                        ; preds = %33, %36
  %39 = icmp eq i32 %34, %27
  br i1 %39, label %41, label %40

40:                                               ; preds = %.critedge
  call void @__assert_fail(ptr noundef nonnull @.str.214, ptr noundef nonnull @.str.62, i32 noundef 2220, ptr noundef nonnull @__PRETTY_FUNCTION__.test_issue_101) #22
  unreachable

41:                                               ; preds = %.critedge
  %42 = load i32, ptr %1, align 4, !tbaa !9
  %43 = icmp eq i32 %42, 0
  br i1 %43, label %45, label %44

44:                                               ; preds = %41
  call void @__assert_fail(ptr noundef nonnull @.str.215, ptr noundef nonnull @.str.62, i32 noundef 2221, ptr noundef nonnull @__PRETTY_FUNCTION__.test_issue_101) #22
  unreachable

45:                                               ; preds = %41
  call void @llvm.lifetime.end.p0(i64 4, ptr nonnull %1) #21
  br label %.loopexit

46:                                               ; preds = %30
  %47 = load i16, ptr @port, align 2, !tbaa !33
  %48 = tail call fastcc ptr @connect_server(i16 noundef zeroext %47, i1 noundef zeroext false)
  store ptr %48, ptr @con, align 8, !tbaa !35
  %.not45 = icmp eq ptr %48, null
  br i1 %.not45, label %49, label %50

49:                                               ; preds = %46
  tail call void @__assert_fail(ptr noundef nonnull @.str.216, ptr noundef nonnull @.str.62, i32 noundef 2224, ptr noundef nonnull @__PRETTY_FUNCTION__.test_issue_101) #22
  unreachable

50:                                               ; preds = %46
  %51 = tail call i32 @test_binary_noop()
  tail call fastcc void @close_conn()
  tail call void @exit(i32 noundef 0) #22
  unreachable

.loopexit:                                        ; preds = %22, %45
  %.3 = phi i32 [ 1, %45 ], [ 2, %22 ]
  br label %52

52:                                               ; preds = %.loopexit, %62
  %53 = phi i1 [ true, %.loopexit ], [ false, %62 ]
  %indvars.iv68.sroa.phi = phi ptr [ %.sroa.0, %.loopexit ], [ %.sroa.5, %62 ]
  %54 = load ptr, ptr %indvars.iv68.sroa.phi, align 8, !tbaa !35
  %55 = icmp eq ptr %54, null
  br i1 %55, label %62, label %56

56:                                               ; preds = %52
  %57 = load i32, ptr %54, align 8, !tbaa !37
  %58 = icmp sgt i32 %57, 0
  br i1 %58, label %59, label %61

59:                                               ; preds = %56
  %60 = call i32 @close(i32 noundef %57) #21
  br label %61

61:                                               ; preds = %59, %56
  call void @free(ptr noundef nonnull %54) #21
  store ptr null, ptr %indvars.iv68.sroa.phi, align 8, !tbaa !35
  br label %62

62:                                               ; preds = %52, %61
  br i1 %53, label %52, label %63, !llvm.loop !42

63:                                               ; preds = %62
  %64 = load i32, ptr @server_pid, align 4, !tbaa !9
  %65 = call i32 @kill(i32 noundef %64, i32 noundef 15) #21
  %66 = icmp eq i32 %65, 0
  br i1 %66, label %68, label %67

67:                                               ; preds = %63
  call void @__assert_fail(ptr noundef nonnull @.str.217, ptr noundef nonnull @.str.62, i32 noundef 2248, ptr noundef nonnull @__PRETTY_FUNCTION__.test_issue_101) #22
  unreachable

68:                                               ; preds = %63, %0
  %.0 = phi i32 [ 0, %0 ], [ %.3, %63 ]
  call void @llvm.lifetime.end.p0(i64 8, ptr nonnull %.sroa.0)
  call void @llvm.lifetime.end.p0(i64 8, ptr nonnull %.sroa.5)
  ret i32 %.0
}